; Function Attrs: mustprogress nounwind uwtable
define dso_local noundef i32 @_ZN4llvm13WinCOFFWriter20writeSectionContentsERNS_11MCAssemblerERKNS_9MCSectionE(ptr nocapture noundef nonnull readonly align 8 dereferenceable(216) %0, ptr noundef nonnull align 8 dereferenceable(372) %1, ptr noundef nonnull align 8 dereferenceable(148) %2) local_unnamed_addr #0 align 2 {
  %4 = alloca %"class.llvm::SmallVector.112", align 8
  %5 = alloca %"class.llvm::raw_svector_ostream", align 8
  %6 = alloca %"class.llvm::JamCRC", align 4
  %7 = getelementptr inbounds i8, ptr %4, i64 24
  call void @_ZN4llvm15SmallVectorBaseImEC2EPvm(ptr noundef nonnull align 8 dereferenceable(24) %4, ptr noundef nonnull %7, i64 noundef 128) #20
  %8 = getelementptr inbounds nuw i8, ptr %5, i64 8
  store i32 2, ptr %8, align 8
  %9 = getelementptr inbounds nuw i8, ptr %5, i64 40
  store i8 0, ptr %9, align 8
  %10 = getelementptr inbounds nuw i8, ptr %5, i64 44
  store i32 1, ptr %10, align 4
  %11 = getelementptr inbounds nuw i8, ptr %5, i64 16
  call void @llvm.memset.p0.i64(ptr noundef nonnull align 8 dereferenceable(24) %11, i8 0, i64 24, i1 false)
  store ptr getelementptr inbounds inrange(-16, 112) (i8, ptr @_ZTVN4llvm19raw_svector_ostreamE, i64 16), ptr %5, align 8
  %12 = getelementptr inbounds nuw i8, ptr %5, i64 48
  store ptr %4, ptr %12, align 8
  call void @_ZN4llvm11raw_ostream16SetBufferAndModeEPcmNS0_10BufferKindE(ptr noundef nonnull align 8 dereferenceable(48) %5, ptr noundef null, i64 noundef 0, i32 noundef 0) #20
  call void @_ZNK4llvm11MCAssembler16writeSectionDataERNS_11raw_ostreamEPKNS_9MCSectionE(ptr noundef nonnull align 8 dereferenceable(372) %1, ptr noundef nonnull align 8 dereferenceable(48) %5, ptr noundef nonnull %2) #20
  %13 = getelementptr inbounds nuw i8, ptr %0, i64 8
  %14 = load ptr, ptr %13, align 8
  %15 = load ptr, ptr %4, align 8
  %16 = call noundef i64 @_ZNK4llvm15SmallVectorBaseImE4sizeEv(ptr noundef nonnull align 8 dereferenceable(24) %4) #20
  %17 = call noundef nonnull align 8 dereferenceable(48) ptr @_ZN4llvm11raw_ostream5writeEPKcm(ptr noundef nonnull align 8 dereferenceable(48) %14, ptr noundef %15, i64 noundef %16) #20
  store i32 0, ptr %6, align 4
  %18 = load ptr, ptr %4, align 8
  %19 = call noundef i64 @_ZNK4llvm15SmallVectorBaseImE4sizeEv(ptr noundef nonnull align 8 dereferenceable(24) %4) #20
  call void @_ZN4llvm6JamCRC6updateENS_8ArrayRefIhEE(ptr noundef nonnull align 4 dereferenceable(4) %6, ptr %18, i64 %19) #20
  %20 = load i32, ptr %6, align 4
  call void @_ZN4llvm11raw_ostreamD2Ev(ptr noundef nonnull align 8 dereferenceable(48) %5) #20
  %21 = call noundef i64 @_ZNK4llvm15SmallVectorBaseImE4sizeEv(ptr noundef nonnull align 8 dereferenceable(24) %4) #20
  %22 = load ptr, ptr %4, align 8
  %23 = icmp eq ptr %22, %7
  br i1 %23, label %_ZN4llvm11SmallVectorIcLj128EED2Ev.exit, label %24

24:                                               ; preds = %3
  call void @free(ptr noundef %22) #20
  br label %_ZN4llvm11SmallVectorIcLj128EED2Ev.exit

_ZN4llvm11SmallVectorIcLj128EED2Ev.exit:          ; preds = %3, %24
  ret i32 %20
}